(dp0
S'VDR'
p1
(lp2
(dp3
S'pharmacologicAction'
p4
S'unknown'
p5
sS'uri'
p6
Vhttp://bio2rdf.org/pharmgkb_resource:association_PA450496_PA37301
p7
sS'label'
p8
VDrug Gene Association [pharmgkb_resource:association_PA450496_PA37301]
p9
sS'source'
p10
S'http://pharmgkb.bio2rdf.org/sparql'
p11
sS'targetURI'
p12
Vhttp://bio2rdf.org/pharmgkb:PA37301
p13
sS'drugURI'
p14
Vhttp://bio2rdf.org/pharmgkb:PA450496
p15
sS'drugGeneric'
p16
Vmidazolam [pharmgkb:PA450496]
p17
sasS'ATM'
p18
(lp19
(dp20
g4
g5
sg6
Vhttp://bio2rdf.org/pharmgkb_resource:association_PA450395_PA61
p21
sg8
VDrug Gene Association [pharmgkb_resource:association_PA450395_PA61]
p22
sg10
g11
sg12
Vhttp://bio2rdf.org/pharmgkb:PA61
p23
sg14
Vhttp://bio2rdf.org/pharmgkb:PA450395
p24
sg16
Vmetformin [pharmgkb:PA450395]
p25
sasS'GSTP1'
p26
(lp27
(dp28
g4
g5
sg6
Vhttp://bio2rdf.org/pharmgkb_resource:association_PA449165_PA29028
p29
sg8
VDrug Gene Association [pharmgkb_resource:association_PA449165_PA29028]
p30
sg10
g11
sg12
Vhttp://bio2rdf.org/pharmgkb:PA29028
p31
sg14
Vhttp://bio2rdf.org/pharmgkb:PA449165
p32
sg16
Vcyclophosphamide [pharmgkb:PA449165]
p33
sa(dp34
g4
g5
sg6
Vhttp://bio2rdf.org/pharmgkb_resource:association_PA150481189_PA29028
p35
sg8
VDrug Gene Association [pharmgkb_resource:association_PA150481189_PA29028]
p36
sg10
g11
sg12
Vhttp://bio2rdf.org/pharmgkb:PA29028
p37
sg14
Vhttp://bio2rdf.org/pharmgkb:PA150481189
p38
sg16
Vtaxanes [pharmgkb:PA150481189]
p39
sa(dp40
g4
g5
sg6
Vhttp://bio2rdf.org/pharmgkb_resource:association_PA449014_PA29028
p41
sg8
VDrug Gene Association [pharmgkb_resource:association_PA449014_PA29028]
p42
sg10
g11
sg12
Vhttp://bio2rdf.org/pharmgkb:PA29028
p43
sg14
Vhttp://bio2rdf.org/pharmgkb:PA449014
p44
sg16
Vcisplatin [pharmgkb:PA449014]
p45
sa(dp46
g4
g5
sg6
Vhttp://bio2rdf.org/pharmgkb_resource:association_PA164713176_PA29028
p47
sg8
VDrug Gene Association [pharmgkb_resource:association_PA164713176_PA29028]
p48
sg10
g11
sg12
Vhttp://bio2rdf.org/pharmgkb:PA29028
p49
sg14
Vhttp://bio2rdf.org/pharmgkb:PA164713176
p50
sg16
VPlatinum compounds [pharmgkb:PA164713176]
p51
sa(dp52
g4
g5
sg6
Vhttp://bio2rdf.org/pharmgkb_resource:association_PA451668_PA29028
p53
sg8
VDrug Gene Association [pharmgkb_resource:association_PA451668_PA29028]
p54
sg10
g11
sg12
Vhttp://bio2rdf.org/pharmgkb:PA29028
p55
sg14
Vhttp://bio2rdf.org/pharmgkb:PA451668
p56
sg16
Vthiotepa [pharmgkb:PA451668]
p57
sa(dp58
g4
g5
sg6
Vhttp://bio2rdf.org/pharmgkb_resource:association_PA131285527_PA29028
p59
sg8
VDrug Gene Association [pharmgkb_resource:association_PA131285527_PA29028]
p60
sg10
g11
sg12
Vhttp://bio2rdf.org/pharmgkb:PA29028
p61
sg14
Vhttp://bio2rdf.org/pharmgkb:PA131285527
p62
sg16
Voxaliplatin [pharmgkb:PA131285527]
p63
sasS'GRIN2B'
p64
(lp65
(dp66
g4
g5
sg6
Vhttp://bio2rdf.org/pharmgkb_resource:association_PA451846_PA28980
p67
sg8
VDrug Gene Association [pharmgkb_resource:association_PA451846_PA28980]
p68
sg10
g11
sg12
Vhttp://bio2rdf.org/pharmgkb:PA28980
p69
sg14
Vhttp://bio2rdf.org/pharmgkb:PA451846
p70
sg16
Valproic acid [pharmgkb:PA451846]
p71
sa(dp72
g4
g5
sg6
Vhttp://bio2rdf.org/pharmgkb_resource:association_PA451846_PA28980
p73
sg8
VDrug Gene Association [pharmgkb_resource:association_PA451846_PA28980]
p74
sg10
g11
sg12
Vhttp://bio2rdf.org/pharmgkb:PA28980
p75
sg14
Vhttp://bio2rdf.org/pharmgkb:PA451846
p76
sg16
Vvalproic acid [pharmgkb:PA451846]
p77
sasS'UGT2B15'
p78
(lp79
(dp80
g4
g5
sg6
Vhttp://bio2rdf.org/pharmgkb_resource:association_PA450267_PA37188
p81
sg8
VDrug Gene Association [pharmgkb_resource:association_PA450267_PA37188]
p82
sg10
g11
sg12
Vhttp://bio2rdf.org/pharmgkb:PA37188
p83
sg14
Vhttp://bio2rdf.org/pharmgkb:PA450267
p84
sg16
Vlorazepam [pharmgkb:PA450267]
p85
sa(dp86
g4
g5
sg6
Vhttp://bio2rdf.org/pharmgkb_resource:association_PA450731_PA37188
p87
sg8
VDrug Gene Association [pharmgkb_resource:association_PA450731_PA37188]
p88
sg10
g11
sg12
Vhttp://bio2rdf.org/pharmgkb:PA37188
p89
sg14
Vhttp://bio2rdf.org/pharmgkb:PA450731
p90
sg16
Voxazepam [pharmgkb:PA450731]
p91
sasS'ADRB2'
p92
(lp93
(dp94
g4
g5
sg6
Vhttp://bio2rdf.org/pharmgkb_resource:association_PA451616_PA39
p95
sg8
VDrug Gene Association [pharmgkb_resource:association_PA451616_PA39]
p96
sg10
g11
sg12
Vhttp://bio2rdf.org/pharmgkb:PA39
p97
sg14
Vhttp://bio2rdf.org/pharmgkb:PA451616
p98
sg16
Vterbutaline [pharmgkb:PA451616]
p99
sasS'ADH1C'
p100
(lp101
(dp102
g4
g5
sg6
Vhttp://bio2rdf.org/pharmgkb_resource:association_PA448073_PA24572
p103
sg8
VDrug Gene Association [pharmgkb_resource:association_PA448073_PA24572]
p104
sg10
g11
sg12
Vhttp://bio2rdf.org/pharmgkb:PA24572
p105
sg14
Vhttp://bio2rdf.org/pharmgkb:PA448073
p106
sg16
Vethanol [pharmgkb:PA448073]
p107
sasS'ADH1B'
p108
(lp109
(dp110
g4
g5
sg6
Vhttp://bio2rdf.org/pharmgkb_resource:association_PA448073_PA24571
p111
sg8
VDrug Gene Association [pharmgkb_resource:association_PA448073_PA24571]
p112
sg10
g11
sg12
Vhttp://bio2rdf.org/pharmgkb:PA24571
p113
sg14
Vhttp://bio2rdf.org/pharmgkb:PA448073
p114
sg16
Vethanol [pharmgkb:PA448073]
p115
sasS'SLC22A3'
p116
(lp117
(dp118
g4
g5
sg6
Vhttp://bio2rdf.org/pharmgkb_resource:association_PA133822447_PA330
p119
sg8
VDrug Gene Association [pharmgkb_resource:association_PA133822447_PA330]
p120
sg10
g11
sg12
Vhttp://bio2rdf.org/pharmgkb:PA330
p121
sg14
Vhttp://bio2rdf.org/pharmgkb:PA133822447
p122
sg16
Vcatecholamines [pharmgkb:PA133822447]
p123
sa(dp124
g4
g5
sg6
Vhttp://bio2rdf.org/pharmgkb_resource:association_PA450395_PA330
p125
sg8
VDrug Gene Association [pharmgkb_resource:association_PA450395_PA330]
p126
sg10
g11
sg12
Vhttp://bio2rdf.org/pharmgkb:PA330
p127
sg14
Vhttp://bio2rdf.org/pharmgkb:PA450395
p128
sg16
Vmetformin [pharmgkb:PA450395]
p129
sasS'ABL1'
p130
(lp131
(dp132
g4
g5
sg6
Vhttp://bio2rdf.org/pharmgkb_resource:association_PA162372878_PA24413
p133
sg8
VDrug Gene Association [pharmgkb_resource:association_PA162372878_PA24413]
p134
sg10
g11
sg12
Vhttp://bio2rdf.org/pharmgkb:PA24413
p135
sg14
Vhttp://bio2rdf.org/pharmgkb:PA162372878
p136
sg16
Vdasatinib [pharmgkb:PA162372878]
p137
sasS'CYP3A5'
p138
(lp139
(dp140
g4
g5
sg6
Vhttp://bio2rdf.org/pharmgkb_resource:association_PA165110778_PA131
p141
sg8
VDrug Gene Association [pharmgkb_resource:association_PA165110778_PA131]
p142
sg10
g11
sg12
Vhttp://bio2rdf.org/pharmgkb:PA131
p143
sg14
Vhttp://bio2rdf.org/pharmgkb:PA165110778
p144
sg16
VTipifarnib [pharmgkb:PA165110778]
p145
sa(dp146
g4
g5
sg6
Vhttp://bio2rdf.org/pharmgkb_resource:association_PA451257_PA131
p147
sg8
VDrug Gene Association [pharmgkb_resource:association_PA451257_PA131]
p148
sg10
g11
sg12
Vhttp://bio2rdf.org/pharmgkb:PA131
p149
sg14
Vhttp://bio2rdf.org/pharmgkb:PA451257
p150
sg16
Vrisperidone [pharmgkb:PA451257]
p151
sa(dp152
g4
g5
sg6
Vhttp://bio2rdf.org/pharmgkb_resource:association_PA10229_PA131
p153
sg8
VDrug Gene Association [pharmgkb_resource:association_PA10229_PA131]
p154
sg10
g11
sg12
Vhttp://bio2rdf.org/pharmgkb:PA131
p155
sg14
Vhttp://bio2rdf.org/pharmgkb:PA10229
p156
sg16
Vvardenafil [pharmgkb:PA10229]
p157
sa(dp158
g4
g5
sg6
Vhttp://bio2rdf.org/pharmgkb_resource:association_PA449167_PA131
p159
sg8
VDrug Gene Association [pharmgkb_resource:association_PA449167_PA131]
p160
sg10
g11
sg12
Vhttp://bio2rdf.org/pharmgkb:PA131
p161
sg14
Vhttp://bio2rdf.org/pharmgkb:PA449167
p162
sg16
Vcyclosporine [pharmgkb:PA449167]
p163
sa(dp164
g4
g5
sg6
Vhttp://bio2rdf.org/pharmgkb_resource:association_PA449441_PA131
p165
sg8
VDrug Gene Association [pharmgkb_resource:association_PA449441_PA131]
p166
sg10
g11
sg12
Vhttp://bio2rdf.org/pharmgkb:PA131
p167
sg14
Vhttp://bio2rdf.org/pharmgkb:PA449441
p168
sg16
Vefavirenz [pharmgkb:PA449441]
p169
sa(dp170
g4
g5
sg6
Vhttp://bio2rdf.org/pharmgkb_resource:association_PA451365_PA131
p171
sg8
VDrug Gene Association [pharmgkb_resource:association_PA451365_PA131]
p172
sg10
g11
sg12
Vhttp://bio2rdf.org/pharmgkb:PA131
p173
sg14
Vhttp://bio2rdf.org/pharmgkb:PA451365
p174
sg16
Vsirolimus [pharmgkb:PA451365]
p175
sa(dp176
g4
g5
sg6
Vhttp://bio2rdf.org/pharmgkb_resource:association_PA448084_PA131
p177
sg8
VDrug Gene Association [pharmgkb_resource:association_PA448084_PA131]
p178
sg10
g11
sg12
Vhttp://bio2rdf.org/pharmgkb:PA131
p179
sg14
Vhttp://bio2rdf.org/pharmgkb:PA448084
p180
sg16
Valfentanil [pharmgkb:PA448084]
p181
sa(dp182
g4
g5
sg6
Vhttp://bio2rdf.org/pharmgkb_resource:association_PA450616_PA131
p183
sg8
VDrug Gene Association [pharmgkb_resource:association_PA450616_PA131]
p184
sg10
g11
sg12
Vhttp://bio2rdf.org/pharmgkb:PA131
p185
sg14
Vhttp://bio2rdf.org/pharmgkb:PA450616
p186
sg16
Vnevirapine [pharmgkb:PA450616]
p187
sa(dp188
g4
g5
sg6
Vhttp://bio2rdf.org/pharmgkb_resource:association_PA450496_PA131
p189
sg8
VDrug Gene Association [pharmgkb_resource:association_PA450496_PA131]
p190
sg10
g11
sg12
Vhttp://bio2rdf.org/pharmgkb:PA131
p191
sg14
Vhttp://bio2rdf.org/pharmgkb:PA450496
p192
sg16
Vmidazolam [pharmgkb:PA450496]
p193
sa(dp194
g4
g5
sg6
Vhttp://bio2rdf.org/pharmgkb_resource:association_PA450606_PA131
p195
sg8
VDrug Gene Association [pharmgkb_resource:association_PA450606_PA131]
p196
sg10
g11
sg12
Vhttp://bio2rdf.org/pharmgkb:PA131
p197
sg14
Vhttp://bio2rdf.org/pharmgkb:PA450606
p198
sg16
Vnelfinavir [pharmgkb:PA450606]
p199
sa(dp200
g4
g5
sg6
Vhttp://bio2rdf.org/pharmgkb_resource:association_PA451578_PA131
p201
sg8
VDrug Gene Association [pharmgkb_resource:association_PA451578_PA131]
p202
sg10
g11
sg12
Vhttp://bio2rdf.org/pharmgkb:PA131
p203
sg14
Vhttp://bio2rdf.org/pharmgkb:PA451578
p204
sg16
Vtacrolimus [pharmgkb:PA451578]
p205
sasS'ABCB1'
p206
(lp207
(dp208
g4
g5
sg6
Vhttp://bio2rdf.org/pharmgkb_resource:association_PA449167_PA267
p209
sg8
VDrug Gene Association [pharmgkb_resource:association_PA449167_PA267]
p210
sg10
g11
sg12
Vhttp://bio2rdf.org/pharmgkb:PA267
p211
sg14
Vhttp://bio2rdf.org/pharmgkb:PA449167
p212
sg16
Vcyclosporine [pharmgkb:PA449167]
p213
sa(dp214
g4
g5
sg6
Vhttp://bio2rdf.org/pharmgkb_resource:association_PA449441_PA267
p215
sg8
VDrug Gene Association [pharmgkb_resource:association_PA449441_PA267]
p216
sg10
g11
sg12
Vhttp://bio2rdf.org/pharmgkb:PA267
p217
sg14
Vhttp://bio2rdf.org/pharmgkb:PA449441
p218
sg16
Vefavirenz [pharmgkb:PA449441]
p219
sa(dp220
g4
g5
sg6
Vhttp://bio2rdf.org/pharmgkb_resource:association_PA134687924_PA267
p221
sg8
VDrug Gene Association [pharmgkb_resource:association_PA134687924_PA267]
p222
sg10
g11
sg12
Vhttp://bio2rdf.org/pharmgkb:PA267
p223
sg14
Vhttp://bio2rdf.org/pharmgkb:PA134687924
p224
sg16
Verlotinib [pharmgkb:PA134687924]
p225
sa(dp226
g4
g5
sg6
Vhttp://bio2rdf.org/pharmgkb_resource:association_PA451250_PA267
p227
sg8
VDrug Gene Association [pharmgkb_resource:association_PA451250_PA267]
p228
sg10
g11
sg12
Vhttp://bio2rdf.org/pharmgkb:PA267
p229
sg14
Vhttp://bio2rdf.org/pharmgkb:PA451250
p230
sg16
Vrifampin [pharmgkb:PA451250]
p231
sa(dp232
g4
g5
sg6
Vhttp://bio2rdf.org/pharmgkb_resource:association_PA450112_PA267
p233
sg8
VDrug Gene Association [pharmgkb_resource:association_PA450112_PA267]
p234
sg10
g11
sg12
Vhttp://bio2rdf.org/pharmgkb:PA267
p235
sg14
Vhttp://bio2rdf.org/pharmgkb:PA450112
p236
sg16
Visoniazid [pharmgkb:PA450112]
p237
sa(dp238
g4
g5
sg6
Vhttp://bio2rdf.org/pharmgkb_resource:association_PA150481189_PA267
p239
sg8
VDrug Gene Association [pharmgkb_resource:association_PA150481189_PA267]
p240
sg10
g11
sg12
Vhttp://bio2rdf.org/pharmgkb:PA267
p241
sg14
Vhttp://bio2rdf.org/pharmgkb:PA150481189
p242
sg16
Vtaxanes [pharmgkb:PA150481189]
p243
sa(dp244
g4
g5
sg6
Vhttp://bio2rdf.org/pharmgkb_resource:association_PA449621_PA267
p245
sg8
VDrug Gene Association [pharmgkb_resource:association_PA449621_PA267]
p246
sg10
g11
sg12
Vhttp://bio2rdf.org/pharmgkb:PA267
p247
sg14
Vhttp://bio2rdf.org/pharmgkb:PA449621
p248
sg16
Vfexofenadine [pharmgkb:PA449621]
p249
sa(dp250
g4
g5
sg6
Vhttp://bio2rdf.org/pharmgkb_resource:association_PA450262_PA267
p251
sg8
VDrug Gene Association [pharmgkb_resource:association_PA450262_PA267]
p252
sg10
g11
sg12
Vhttp://bio2rdf.org/pharmgkb:PA267
p253
sg14
Vhttp://bio2rdf.org/pharmgkb:PA450262
p254
sg16
Vloperamide [pharmgkb:PA450262]
p255
sa(dp256
g4
g5
sg6
Vhttp://bio2rdf.org/pharmgkb_resource:association_PA150595617_PA267
p257
sg8
VDrug Gene Association [pharmgkb_resource:association_PA150595617_PA267]
p258
sg10
g11
sg12
Vhttp://bio2rdf.org/pharmgkb:PA267
p259
sg14
Vhttp://bio2rdf.org/pharmgkb:PA150595617
p260
sg16
Vplatinum [pharmgkb:PA150595617]
p261
sa(dp262
g4
g5
sg6
Vhttp://bio2rdf.org/pharmgkb_resource:association_PA451363_PA267
p263
sg8
VDrug Gene Association [pharmgkb_resource:association_PA451363_PA267]
p264
sg10
g11
sg12
Vhttp://bio2rdf.org/pharmgkb:PA267
p265
sg14
Vhttp://bio2rdf.org/pharmgkb:PA451363
p266
sg16
Vsimvastatin [pharmgkb:PA451363]
p267
sa(dp268
g4
g5
sg6
Vhttp://bio2rdf.org/pharmgkb_resource:association_PA450606_PA267
p269
sg8
VDrug Gene Association [pharmgkb_resource:association_PA450606_PA267]
p270
sg10
g11
sg12
Vhttp://bio2rdf.org/pharmgkb:PA267
p271
sg14
Vhttp://bio2rdf.org/pharmgkb:PA450606
p272
sg16
Vnelfinavir [pharmgkb:PA450606]
p273
sa(dp274
g4
g5
sg6
Vhttp://bio2rdf.org/pharmgkb_resource:association_PA451868_PA267
p275
sg8
VDrug Gene Association [pharmgkb_resource:association_PA451868_PA267]
p276
sg10
g11
sg12
Vhttp://bio2rdf.org/pharmgkb:PA267
p277
sg14
Vhttp://bio2rdf.org/pharmgkb:PA451868
p278
sg16
Vverapamil [pharmgkb:PA451868]
p279
sa(dp280
g4
g5
sg6
Vhttp://bio2rdf.org/pharmgkb_resource:association_PA448785_PA267
p281
sg8
VDrug Gene Association [pharmgkb_resource:association_PA448785_PA267]
p282
sg10
g11
sg12
Vhttp://bio2rdf.org/pharmgkb:PA267
p283
sg14
Vhttp://bio2rdf.org/pharmgkb:PA448785
p284
sg16
Vcarbamazepine [pharmgkb:PA448785]
p285
sa(dp286
g4
g5
sg6
Vhttp://bio2rdf.org/pharmgkb_resource:association_PA450616_PA267
p287
sg8
VDrug Gene Association [pharmgkb_resource:association_PA450616_PA267]
p288
sg10
g11
sg12
Vhttp://bio2rdf.org/pharmgkb:PA267
p289
sg14
Vhttp://bio2rdf.org/pharmgkb:PA450616
p290
sg16
Vnevirapine [pharmgkb:PA450616]
p291
sa(dp292
g4
g5
sg6
Vhttp://bio2rdf.org/pharmgkb_resource:association_PA165110729_PA267
p293
sg8
VDrug Gene Association [pharmgkb_resource:association_PA165110729_PA267]
p294
sg10
g11
sg12
Vhttp://bio2rdf.org/pharmgkb:PA267
p295
sg14
Vhttp://bio2rdf.org/pharmgkb:PA165110729
p296
sg16
Vrhodamine 123 [pharmgkb:PA165110729]
p297
sa(dp298
g4
g5
sg6
Vhttp://bio2rdf.org/pharmgkb_resource:association_PA449552_PA267
p299
sg8
VDrug Gene Association [pharmgkb_resource:association_PA449552_PA267]
p300
sg10
g11
sg12
Vhttp://bio2rdf.org/pharmgkb:PA267
p301
sg14
Vhttp://bio2rdf.org/pharmgkb:PA449552
p302
sg16
Vetoposide [pharmgkb:PA449552]
p303
sa(dp304
g4
g5
sg6
Vhttp://bio2rdf.org/pharmgkb_resource:association_PA165110778_PA267
p305
sg8
VDrug Gene Association [pharmgkb_resource:association_PA165110778_PA267]
p306
sg10
g11
sg12
Vhttp://bio2rdf.org/pharmgkb:PA267
p307
sg14
Vhttp://bio2rdf.org/pharmgkb:PA165110778
p308
sg16
VTipifarnib [pharmgkb:PA165110778]
p309
sa(dp310
g4
g5
sg6
Vhttp://bio2rdf.org/pharmgkb_resource:association_PA449053_PA267
p311
sg8
VDrug Gene Association [pharmgkb_resource:association_PA449053_PA267]
p312
sg10
g11
sg12
Vhttp://bio2rdf.org/pharmgkb:PA267
p313
sg14
Vhttp://bio2rdf.org/pharmgkb:PA449053
p314
sg16
Vclopidogrel [pharmgkb:PA449053]
p315
sa(dp316
g4
g5
sg6
Vhttp://bio2rdf.org/pharmgkb_resource:association_PA450761_PA267
p317
sg8
VDrug Gene Association [pharmgkb_resource:association_PA450761_PA267]
p318
sg10
g11
sg12
Vhttp://bio2rdf.org/pharmgkb:PA267
p319
sg14
Vhttp://bio2rdf.org/pharmgkb:PA450761
p320
sg16
Vpaclitaxel [pharmgkb:PA450761]
p321
sa(dp322
g4
g5
sg6
Vhttp://bio2rdf.org/pharmgkb_resource:association_PA146096022_PA267
p323
sg8
VDrug Gene Association [pharmgkb_resource:association_PA146096022_PA267]
p324
sg10
g11
sg12
Vhttp://bio2rdf.org/pharmgkb:PA267
p325
sg14
Vhttp://bio2rdf.org/pharmgkb:PA146096022
p326
sg16
Vforskolin [pharmgkb:PA146096022]
p327
sa(dp328
g4
g5
sg6
Vhttp://bio2rdf.org/pharmgkb_resource:association_PA451257_PA267
p329
sg8
VDrug Gene Association [pharmgkb_resource:association_PA451257_PA267]
p330
sg10
g11
sg12
Vhttp://bio2rdf.org/pharmgkb:PA267
p331
sg14
Vhttp://bio2rdf.org/pharmgkb:PA451257
p332
sg16
Vrisperidone [pharmgkb:PA451257]
p333
sa(dp334
g4
g5
sg6
Vhttp://bio2rdf.org/pharmgkb_resource:association_PA450496_PA267
p335
sg8
VDrug Gene Association [pharmgkb_resource:association_PA450496_PA267]
p336
sg10
g11
sg12
Vhttp://bio2rdf.org/pharmgkb:PA267
p337
sg14
Vhttp://bio2rdf.org/pharmgkb:PA450496
p338
sg16
Vmidazolam [pharmgkb:PA450496]
p339
sa(dp340
g4
g5
sg6
Vhttp://bio2rdf.org/pharmgkb_resource:association_PA451106_PA267
p341
sg8
VDrug Gene Association [pharmgkb_resource:association_PA451106_PA267]
p342
sg10
g11
sg12
Vhttp://bio2rdf.org/pharmgkb:PA267
p343
sg14
Vhttp://bio2rdf.org/pharmgkb:PA451106
p344
sg16
Vprobenecid [pharmgkb:PA451106]
p345
sa(dp346
g4
g5
sg6
Vhttp://bio2rdf.org/pharmgkb_resource:association_PA451093_PA267
p347
sg8
VDrug Gene Association [pharmgkb_resource:association_PA451093_PA267]
p348
sg10
g11
sg12
Vhttp://bio2rdf.org/pharmgkb:PA267
p349
sg14
Vhttp://bio2rdf.org/pharmgkb:PA451093
p350
sg16
Vprazosin [pharmgkb:PA451093]
p351
sa(dp352
g4
g5
sg6
Vhttp://bio2rdf.org/pharmgkb_resource:association_PA449061_PA267
p353
sg8
VDrug Gene Association [pharmgkb_resource:association_PA449061_PA267]
p354
sg10
g11
sg12
Vhttp://bio2rdf.org/pharmgkb:PA267
p355
sg14
Vhttp://bio2rdf.org/pharmgkb:PA449061
p356
sg16
Vclozapine [pharmgkb:PA449061]
p357
sa(dp358
g4
g5
sg6
Vhttp://bio2rdf.org/pharmgkb_resource:association_PA132595336_PA267
p359
sg8
VDrug Gene Association [pharmgkb_resource:association_PA132595336_PA267]
p360
sg10
g11
sg12
Vhttp://bio2rdf.org/pharmgkb:PA267
p361
sg14
Vhttp://bio2rdf.org/pharmgkb:PA132595336
p362
sg16
Vcalcein [pharmgkb:PA132595336]
p363
sa(dp364
g4
g5
sg6
Vhttp://bio2rdf.org/pharmgkb_resource:association_PA164749649_PA267
p365
sg8
VDrug Gene Association [pharmgkb_resource:association_PA164749649_PA267]
p366
sg10
g11
sg12
Vhttp://bio2rdf.org/pharmgkb:PA267
p367
sg14
Vhttp://bio2rdf.org/pharmgkb:PA164749649
p368
sg16
Vdicloxacillin [pharmgkb:PA164749649]
p369
sa(dp370
g4
g5
sg6
Vhttp://bio2rdf.org/pharmgkb_resource:association_PA449412_PA267
p371
sg8
VDrug Gene Association [pharmgkb_resource:association_PA449412_PA267]
p372
sg10
g11
sg12
Vhttp://bio2rdf.org/pharmgkb:PA267
p373
sg14
Vhttp://bio2rdf.org/pharmgkb:PA449412
p374
sg16
Vdoxorubicin [pharmgkb:PA449412]
p375
sa(dp376
g4
g5
sg6
Vhttp://bio2rdf.org/pharmgkb_resource:association_PA449319_PA267
p377
sg8
VDrug Gene Association [pharmgkb_resource:association_PA449319_PA267]
p378
sg10
g11
sg12
Vhttp://bio2rdf.org/pharmgkb:PA267
p379
sg14
Vhttp://bio2rdf.org/pharmgkb:PA449319
p380
sg16
Vdigoxin [pharmgkb:PA449319]
p381
sa(dp382
g4
g5
sg6
Vhttp://bio2rdf.org/pharmgkb_resource:association_PA448500_PA267
p383
sg8
VDrug Gene Association [pharmgkb_resource:association_PA448500_PA267]
p384
sg10
g11
sg12
Vhttp://bio2rdf.org/pharmgkb:PA267
p385
sg14
Vhttp://bio2rdf.org/pharmgkb:PA448500
p386
sg16
Vatorvastatin [pharmgkb:PA448500]
p387
sa(dp388
g4
g5
sg6
Vhttp://bio2rdf.org/pharmgkb_resource:association_PA451877_PA267
p389
sg8
VDrug Gene Association [pharmgkb_resource:association_PA451877_PA267]
p390
sg10
g11
sg12
Vhttp://bio2rdf.org/pharmgkb:PA267
p391
sg14
Vhttp://bio2rdf.org/pharmgkb:PA451877
p392
sg16
Vvinblastine [pharmgkb:PA451877]
p393
sa(dp394
g4
g5
sg6
Vhttp://bio2rdf.org/pharmgkb_resource:association_PA146096021_PA267
p395
sg8
VDrug Gene Association [pharmgkb_resource:association_PA146096021_PA267]
p396
sg10
g11
sg12
Vhttp://bio2rdf.org/pharmgkb:PA267
p397
sg14
Vhttp://bio2rdf.org/pharmgkb:PA146096021
p398
sg16
Vbisantrene [pharmgkb:PA146096021]
p399
sa(dp400
g4
g5
sg6
Vhttp://bio2rdf.org/pharmgkb_resource:association_PA450180_PA267
p401
sg8
VDrug Gene Association [pharmgkb_resource:association_PA450180_PA267]
p402
sg10
g11
sg12
Vhttp://bio2rdf.org/pharmgkb:PA267
p403
sg14
Vhttp://bio2rdf.org/pharmgkb:PA450180
p404
sg16
Vlansoprazole [pharmgkb:PA450180]
p405
sa(dp406
g4
g5
sg6
Vhttp://bio2rdf.org/pharmgkb_resource:association_PA452233_PA267
p407
sg8
VDrug Gene Association [pharmgkb_resource:association_PA452233_PA267]
p408
sg10
g11
sg12
Vhttp://bio2rdf.org/pharmgkb:PA267
p409
sg14
Vhttp://bio2rdf.org/pharmgkb:PA452233
p410
sg16
Vantipsychotics [pharmgkb:PA452233]
p411
sa(dp412
g4
g5
sg6
Vhttp://bio2rdf.org/pharmgkb_resource:association_PA451182_PA267
p413
sg8
VDrug Gene Association [pharmgkb_resource:association_PA451182_PA267]
p414
sg10
g11
sg12
Vhttp://bio2rdf.org/pharmgkb:PA267
p415
sg14
Vhttp://bio2rdf.org/pharmgkb:PA451182
p416
sg16
Vpyrazinamide [pharmgkb:PA451182]
p417
sa(dp418
g4
g5
sg6
Vhttp://bio2rdf.org/pharmgkb_resource:association_PA130620651_PA267
p419
sg8
VDrug Gene Association [pharmgkb_resource:association_PA130620651_PA267]
p420
sg10
g11
sg12
Vhttp://bio2rdf.org/pharmgkb:PA267
p421
sg14
Vhttp://bio2rdf.org/pharmgkb:PA130620651
p422
sg16
Vanthracyclines and related substances [pharmgkb:PA130620651]
p423
sa(dp424
g4
g5
sg6
Vhttp://bio2rdf.org/pharmgkb_resource:association_PA450947_PA267
p425
sg8
VDrug Gene Association [pharmgkb_resource:association_PA450947_PA267]
p426
sg10
g11
sg12
Vhttp://bio2rdf.org/pharmgkb:PA267
p427
sg14
Vhttp://bio2rdf.org/pharmgkb:PA450947
p428
sg16
Vphenytoin [pharmgkb:PA450947]
p429
sa(dp430
g4
g5
sg6
Vhttp://bio2rdf.org/pharmgkb_resource:association_PA451578_PA267
p431
sg8
VDrug Gene Association [pharmgkb_resource:association_PA451578_PA267]
p432
sg10
g11
sg12
Vhttp://bio2rdf.org/pharmgkb:PA267
p433
sg14
Vhttp://bio2rdf.org/pharmgkb:PA451578
p434
sg16
Vtacrolimus [pharmgkb:PA451578]
p435
sa(dp436
g4
g5
sg6
Vhttp://bio2rdf.org/pharmgkb_resource:association_PA450401_PA267
p437
sg8
VDrug Gene Association [pharmgkb_resource:association_PA450401_PA267]
p438
sg10
g11
sg12
Vhttp://bio2rdf.org/pharmgkb:PA267
p439
sg14
Vhttp://bio2rdf.org/pharmgkb:PA450401
p440
sg16
Vmethadone [pharmgkb:PA450401]
p441
sa(dp442
g4
g5
sg6
Vhttp://bio2rdf.org/pharmgkb_resource:association_PA450264_PA267
p443
sg8
VDrug Gene Association [pharmgkb_resource:association_PA450264_PA267]
p444
sg10
g11
sg12
Vhttp://bio2rdf.org/pharmgkb:PA267
p445
sg14
Vhttp://bio2rdf.org/pharmgkb:PA450264
p446
sg16
Vlopinavir [pharmgkb:PA450264]
p447
sas.