(dp0
S'VDR'
p1
(lp2
(dp3
S'pharmacologicAction'
p4
S'unknown'
p5
sS'uri'
p6
Vhttp://bio2rdf.org/pharmgkb_resource:association_PA450496_PA37301
p7
sS'label'
p8
VDrug Gene Association [pharmgkb_resource:association_PA450496_PA37301]
p9
sS'source'
p10
S'http://pharmgkb.bio2rdf.org/sparql'
p11
sS'targetURI'
p12
Vhttp://bio2rdf.org/pharmgkb:PA37301
p13
sS'drugURI'
p14
Vhttp://bio2rdf.org/pharmgkb:PA450496
p15
sS'drugGeneric'
p16
Vmidazolam [pharmgkb:PA450496]
p17
sasS'DPYD'
p18
(lp19
(dp20
g4
g5
sg6
Vhttp://bio2rdf.org/pharmgkb_resource:association_PA128406956_PA145
p21
sg8
VDrug Gene Association [pharmgkb_resource:association_PA128406956_PA145]
p22
sg10
g11
sg12
Vhttp://bio2rdf.org/pharmgkb:PA145
p23
sg14
Vhttp://bio2rdf.org/pharmgkb:PA128406956
p24
sg16
Vfluorouracil [pharmgkb:PA128406956]
p25
sa(dp26
g4
g5
sg6
Vhttp://bio2rdf.org/pharmgkb_resource:association_PA164713220_PA145
p27
sg8
VDrug Gene Association [pharmgkb_resource:association_PA164713220_PA145]
p28
sg10
g11
sg12
Vhttp://bio2rdf.org/pharmgkb:PA145
p29
sg14
Vhttp://bio2rdf.org/pharmgkb:PA164713220
p30
sg16
VPyrimidine analogues [pharmgkb:PA164713220]
p31
sasS'ATM'
p32
(lp33
(dp34
g4
g5
sg6
Vhttp://bio2rdf.org/pharmgkb_resource:association_PA450395_PA61
p35
sg8
VDrug Gene Association [pharmgkb_resource:association_PA450395_PA61]
p36
sg10
g11
sg12
Vhttp://bio2rdf.org/pharmgkb:PA61
p37
sg14
Vhttp://bio2rdf.org/pharmgkb:PA450395
p38
sg16
Vmetformin [pharmgkb:PA450395]
p39
sasS'GRIN2B'
p40
(lp41
(dp42
g4
g5
sg6
Vhttp://bio2rdf.org/pharmgkb_resource:association_PA451846_PA28980
p43
sg8
VDrug Gene Association [pharmgkb_resource:association_PA451846_PA28980]
p44
sg10
g11
sg12
Vhttp://bio2rdf.org/pharmgkb:PA28980
p45
sg14
Vhttp://bio2rdf.org/pharmgkb:PA451846
p46
sg16
Valproic acid [pharmgkb:PA451846]
p47
sa(dp48
g4
g5
sg6
Vhttp://bio2rdf.org/pharmgkb_resource:association_PA451846_PA28980
p49
sg8
VDrug Gene Association [pharmgkb_resource:association_PA451846_PA28980]
p50
sg10
g11
sg12
Vhttp://bio2rdf.org/pharmgkb:PA28980
p51
sg14
Vhttp://bio2rdf.org/pharmgkb:PA451846
p52
sg16
Vvalproic acid [pharmgkb:PA451846]
p53
sasS'SCN2A'
p54
(lp55
(dp56
g4
g5
sg6
Vhttp://bio2rdf.org/pharmgkb_resource:association_PA448785_PA162402515
p57
sg8
VDrug Gene Association [pharmgkb_resource:association_PA448785_PA162402515]
p58
sg10
g11
sg12
Vhttp://bio2rdf.org/pharmgkb:PA162402515
p59
sg14
Vhttp://bio2rdf.org/pharmgkb:PA448785
p60
sg16
Vcarbamazepine [pharmgkb:PA448785]
p61
sasS'SCN1A'
p62
(lp63
(dp64
g4
g5
sg6
Vhttp://bio2rdf.org/pharmgkb_resource:association_PA448785_PA301
p65
sg8
VDrug Gene Association [pharmgkb_resource:association_PA448785_PA301]
p66
sg10
g11
sg12
Vhttp://bio2rdf.org/pharmgkb:PA301
p67
sg14
Vhttp://bio2rdf.org/pharmgkb:PA448785
p68
sg16
Vcarbamazepine [pharmgkb:PA448785]
p69
sasS'ABL1'
p70
(lp71
(dp72
g4
g5
sg6
Vhttp://bio2rdf.org/pharmgkb_resource:association_PA162372878_PA24413
p73
sg8
VDrug Gene Association [pharmgkb_resource:association_PA162372878_PA24413]
p74
sg10
g11
sg12
Vhttp://bio2rdf.org/pharmgkb:PA24413
p75
sg14
Vhttp://bio2rdf.org/pharmgkb:PA162372878
p76
sg16
Vdasatinib [pharmgkb:PA162372878]
p77
sas.